#include <math.h>
#include <stdio.h>
#include <stdlib.h>
#include <string.h>
#include <iostream>
using namespace std;

/*
 * ????1.cpp
 * ??????
 * ????:2012-10-26
 * ???????????
 */

int main(){
	int n=0,A[100000],k=0,j=0;                 //????n,k,j???A
	cin>>n;                                    //??????????n
	for(int i=0;i<n;i++){cin>>A[i];}           //??????n???
	cin>>k;                                    //?????????k
	for(int i=0;i<n;i++)                       //????????????
	{
		A[i-j]=A[i];                       //????????????????
		if(A[i]==k){j++;}                  //?????????j
	}
	for(int i=0;i<n-j-1;i++){cout<<A[i]<<" ";} //???????????????????
	cout<<A[n-j-1];
	return 0;                                  //?????
}